target datalayout = "e-m:e-p270:32:32-p271:32:32-p272:64:64-i64:64-i128:128-f80:128-n8:16:32:64-S128"
target triple = "x86_64-pc-linux-gnu"

%struct.plic_context_t = type <{ ptr, i8, i8, [2 x i8], [32 x i32], [32 x i32], [1024 x i8], [32 x i32], [4 x i8] }>
%class.plic_t = type <{ %class.abstract_device_t, %class.abstract_interrupt_controller_t, %"class.std::vector", i32, i32, i32, [1024 x i8], [32 x i32], [4 x i8] }>
%class.abstract_device_t = type { ptr }
%class.abstract_interrupt_controller_t = type { ptr }
%"class.std::vector" = type { %"struct.std::_Vector_base" }
%"struct.std::_Vector_base" = type { %"struct.std::_Vector_base<plic_context_t, std::allocator<plic_context_t>>::_Vector_impl" }
%"struct.std::_Vector_base<plic_context_t, std::allocator<plic_context_t>>::_Vector_impl" = type { %"struct.std::_Vector_base<plic_context_t, std::allocator<plic_context_t>>::_Vector_impl_data" }
%"struct.std::_Vector_base<plic_context_t, std::allocator<plic_context_t>>::_Vector_impl_data" = type { ptr, ptr, ptr }

; Function Attrs: mustprogress nounwind uwtable
define noundef zeroext i1 @_ZN6plic_t19context_enable_readEPK14plic_context_tmPj(ptr noundef nonnull align 8 dereferenceable(1204) %0, ptr noundef %1, i64 noundef %2, ptr noundef %3) #6 align 2 {
  %5 = alloca ptr, align 8
  %6 = alloca ptr, align 8
  %7 = alloca i64, align 8
  %8 = alloca ptr, align 8
  %9 = alloca i32, align 4
  store ptr %0, ptr %5, align 8, !tbaa !3
  store ptr %1, ptr %6, align 8, !tbaa !46
  store i64 %2, ptr %7, align 8, !tbaa !61
  store ptr %3, ptr %8, align 8, !tbaa !65
  %10 = load ptr, ptr %5, align 8
  call void @llvm.lifetime.start.p0(i64 4, ptr %9) #3
  %11 = load i64, ptr %7, align 8, !tbaa !61
  %12 = lshr i64 %11, 2
  %13 = trunc i64 %12 to i32
  store i32 %13, ptr %9, align 4, !tbaa !10
  %14 = load i32, ptr %9, align 4, !tbaa !10
  %15 = getelementptr inbounds nuw %class.plic_t, ptr %10, i32 0, i32 4
  %16 = load i32, ptr %15, align 4, !tbaa !23
  %17 = icmp ult i32 %14, %16
  br i1 %17, label %18, label %26

18:                                               ; preds = %4
  %19 = load ptr, ptr %6, align 8, !tbaa !46
  %20 = getelementptr inbounds nuw %struct.plic_context_t, ptr %19, i32 0, i32 4
  %21 = load i32, ptr %9, align 4, !tbaa !10
  %22 = zext i32 %21 to i64
  %23 = getelementptr inbounds nuw [32 x i32], ptr %20, i64 0, i64 %22
  %24 = load i32, ptr %23, align 4, !tbaa !10
  %25 = load ptr, ptr %8, align 8, !tbaa !65
  store i32 %24, ptr %25, align 4, !tbaa !10
  br label %28

26:                                               ; preds = %4
  %27 = load ptr, ptr %8, align 8, !tbaa !65
  store i32 0, ptr %27, align 4, !tbaa !10
  br label %28

28:                                               ; preds = %26, %18
  call void @llvm.lifetime.end.p0(i64 4, ptr %9) #3
  ret i1 true
}