; Function Attrs: mustprogress nofree norecurse nosync nounwind willreturn memory(argmem: readwrite) uwtable
define noundef zeroext i1 @_ZN6plic_t19context_enable_readEPK14plic_context_tmPj(ptr noundef nonnull readonly align 8 captures(none) dereferenceable(1204) %0, ptr noundef readonly captures(none) %1, i64 noundef %2, ptr noundef writeonly captures(none) initializes((0, 4)) %3) local_unnamed_addr #8 align 2 {
  %5 = lshr i64 %2, 2
  %6 = trunc i64 %5 to i32
  %7 = getelementptr inbounds nuw i8, ptr %0, i64 44
  %8 = load i32, ptr %7, align 4, !tbaa !18
  %9 = icmp ugt i32 %8, %6
  br i1 %9, label %10, label %15

10:                                               ; preds = %4
  %11 = getelementptr inbounds nuw i8, ptr %1, i64 12
  %12 = and i64 %5, 4294967295
  %13 = getelementptr inbounds nuw [32 x i32], ptr %11, i64 0, i64 %12
  %14 = load i32, ptr %13, align 4, !tbaa !53
  br label %15

15:                                               ; preds = %4, %10
  %storemerge = phi i32 [ %14, %10 ], [ 0, %4 ]
  store i32 %storemerge, ptr %3, align 4, !tbaa !53
  ret i1 true
}